; Function Attrs: nounwind uwtable
define dso_local ptr @llvm_get_next_param(ptr nocapture noundef readonly %0, ptr nocapture noundef %1) local_unnamed_addr #0 {
  %3 = getelementptr inbounds i8, ptr %0, i64 48
  %4 = load ptr, ptr %3, align 8
  %5 = load i32, ptr %1, align 4
  %6 = add i32 %5, 1
  store i32 %6, ptr %1, align 4
  %7 = tail call ptr @LLVMGetParam(ptr noundef %4, i32 noundef %5) #7
  ret ptr %7
}